; ModuleID = '1/1053.c'
source_filename = "1/1053.c"
target datalayout = "e-m:e-p270:32:32-p271:32:32-p272:64:64-i64:64-f80:128-n8:16:32:64-S128"
target triple = "x86_64-pc-linux-gnu"

@.str = private unnamed_addr constant [3 x i8] c"%d\00", align 1
@.str.1 = private unnamed_addr constant [3 x i8] c"1\0A\00", align 1
@.str.2 = private unnamed_addr constant [4 x i8] c"%d\0A\00", align 1

; Function Attrs: noinline nounwind uwtable
define dso_local i32 @f(i32 %0, i32 %1) #0 {
  %3 = alloca i32, align 4
  %4 = alloca i32, align 4
  %5 = alloca i32, align 4
  %6 = alloca i32, align 4
  %7 = alloca i32, align 4
  store i32 %0, i32* %4, align 4
  store i32 %1, i32* %5, align 4
  store i32 1, i32* %6, align 4
  %8 = load i32, i32* %5, align 4
  store i32 %8, i32* %7, align 4
  br label %9

9:                                                ; preds = %27, %2
  %10 = load i32, i32* %7, align 4
  %11 = load i32, i32* %4, align 4
  %12 = icmp slt i32 %10, %11
  br i1 %12, label %13, label %30

13:                                               ; preds = %9
  %14 = load i32, i32* %4, align 4
  %15 = load i32, i32* %7, align 4
  %16 = srem i32 %14, %15
  %17 = icmp eq i32 %16, 0
  br i1 %17, label %18, label %26

18:                                               ; preds = %13
  %19 = load i32, i32* %4, align 4
  %20 = load i32, i32* %7, align 4
  %21 = sdiv i32 %19, %20
  %22 = load i32, i32* %7, align 4
  %23 = call i32 @f(i32 %21, i32 %22)
  %24 = load i32, i32* %6, align 4
  %25 = add nsw i32 %24, %23
  store i32 %25, i32* %6, align 4
  br label %26

26:                                               ; preds = %18, %13
  br label %27

27:                                               ; preds = %26
  %28 = load i32, i32* %7, align 4
  %29 = add nsw i32 %28, 1
  store i32 %29, i32* %7, align 4
  br label %9

30:                                               ; preds = %9
  %31 = load i32, i32* %7, align 4
  %32 = load i32, i32* %4, align 4
  %33 = icmp eq i32 %31, %32
  br i1 %33, label %34, label %36

34:                                               ; preds = %30
  %35 = load i32, i32* %6, align 4
  store i32 %35, i32* %3, align 4
  br label %37

36:                                               ; preds = %30
  store i32 0, i32* %3, align 4
  br label %37

37:                                               ; preds = %36, %34
  %38 = load i32, i32* %3, align 4
  ret i32 %38
}

; Function Attrs: noinline nounwind uwtable
define dso_local void @main() #0 {
  %1 = alloca i32, align 4
  %2 = alloca i32, align 4
  %3 = call i32 (i8*, ...) @__isoc99_scanf(i8* getelementptr inbounds ([3 x i8], [3 x i8]* @.str, i64 0, i64 0), i32* %1)
  br label %4

4:                                                ; preds = %21, %0
  %5 = load i32, i32* %1, align 4
  %6 = icmp sgt i32 %5, 0
  br i1 %6, label %7, label %24

7:                                                ; preds = %4
  %8 = call i32 (i8*, ...) @__isoc99_scanf(i8* getelementptr inbounds ([3 x i8], [3 x i8]* @.str, i64 0, i64 0), i32* %2)
  %9 = load i32, i32* %2, align 4
  %10 = icmp eq i32 %9, 1
  br i1 %10, label %14, label %11

11:                                               ; preds = %7
  %12 = load i32, i32* %2, align 4
  %13 = icmp eq i32 %12, 2
  br i1 %13, label %14, label %16

14:                                               ; preds = %11, %7
  %15 = call i32 (i8*, ...) @printf(i8* getelementptr inbounds ([3 x i8], [3 x i8]* @.str.1, i64 0, i64 0))
  br label %20

16:                                               ; preds = %11
  %17 = load i32, i32* %2, align 4
  %18 = call i32 @f(i32 %17, i32 2)
  %19 = call i32 (i8*, ...) @printf(i8* getelementptr inbounds ([4 x i8], [4 x i8]* @.str.2, i64 0, i64 0), i32 %18)
  br label %20

20:                                               ; preds = %16, %14
  br label %21

21:                                               ; preds = %20
  %22 = load i32, i32* %1, align 4
  %23 = add nsw i32 %22, -1
  store i32 %23, i32* %1, align 4
  br label %4

24:                                               ; preds = %4
  ret void
}

declare dso_local i32 @__isoc99_scanf(i8*, ...) #1

declare dso_local i32 @printf(i8*, ...) #1


!llvm.module.flags = !{!0}
!llvm.ident = !{!1}

!0 = !{i32 1, !"wchar_size", i32 4}
!1 = !{!"clang version 10.0.0-4ubuntu1 "}
